ARM GAS  C:\Users\Nick\AppData\Local\Temp\cc7xntia.s 			page 1


   1              		.syntax unified
   2              		.cpu cortex-m3
   3              		.fpu softvfp
   4              		.eabi_attribute 20, 1
   5              		.eabi_attribute 21, 1
   6              		.eabi_attribute 23, 3
   7              		.eabi_attribute 24, 1
   8              		.eabi_attribute 25, 1
   9              		.eabi_attribute 26, 1
  10              		.eabi_attribute 30, 1
  11              		.eabi_attribute 34, 1
  12              		.eabi_attribute 18, 4
  13              		.thumb
  14              		.file	"main.c"
  15              		.text
  16              	.Ltext0:
  17              		.cfi_sections	.debug_frame
  18              		.global	__aeabi_i2f
  19              		.global	__aeabi_f2d
  20              		.global	__aeabi_dadd
  21              		.global	__aeabi_dmul
  22              		.global	__aeabi_d2uiz
  23              		.global	__aeabi_d2f
  24              		.global	__aeabi_fadd
  25              		.global	__aeabi_fcmpgt
  26              		.global	__aeabi_dcmplt
  27              		.section	.text.main,"ax",%progbits
  28              		.align	2
  29              		.global	main
  30              		.thumb
  31              		.thumb_func
  32              		.type	main, %function
  33              	main:
  34              	.LFB63:
  35              		.file 1 ".\\main.c"
   1:.\main.c      **** //PSOC5 (Project target = CY8C5888LTI-LP097) minimal example for NeoPixel component
   2:.\main.c      **** //Nick Burns (PolyVinalDistillate)
   3:.\main.c      **** #include <project.h>
   4:.\main.c      **** #include "math.h"
   5:.\main.c      **** //Allocate an array for 16 NeoPixels
   6:.\main.c      **** unsigned char pPixelArray[16*3];
   7:.\main.c      **** //Set up some variables for animation code
   8:.\main.c      **** float power = 1;
   9:.\main.c      **** float Deltapower = 0.005;
  10:.\main.c      **** float offset = 0;
  11:.\main.c      **** //Main function
  12:.\main.c      **** int main()
  13:.\main.c      **** {
  36              		.loc 1 13 0
  37              		.cfi_startproc
  38              		@ args = 0, pretend = 0, frame = 8
  39              		@ frame_needed = 0, uses_anonymous_args = 0
  40 0000 2DE9F04F 		push	{r4, r5, r6, r7, r8, r9, r10, fp, lr}
  41              		.cfi_def_cfa_offset 36
  42              		.cfi_offset 4, -36
  43              		.cfi_offset 5, -32
  44              		.cfi_offset 6, -28
ARM GAS  C:\Users\Nick\AppData\Local\Temp\cc7xntia.s 			page 2


  45              		.cfi_offset 7, -24
  46              		.cfi_offset 8, -20
  47              		.cfi_offset 9, -16
  48              		.cfi_offset 10, -12
  49              		.cfi_offset 11, -8
  50              		.cfi_offset 14, -4
  51 0004 83B0     		sub	sp, sp, #12
  52              		.cfi_def_cfa_offset 48
  14:.\main.c      ****     //Start the NeoPixel component (16 pix, User array, 12.8 MHz base clock)
  15:.\main.c      ****     NP_Start(16, pPixelArray, 12.8);
  53              		.loc 1 15 0
  54 0006 1020     		movs	r0, #16
  55 0008 7F49     		ldr	r1, .L9+56
  56 000a 71A3     		adr	r3, .L9
  57 000c D3E90023 		ldrd	r2, [r3]
  58 0010 FFF7FEFF 		bl	NP_Start
  59              	.LVL0:
  60              	.L7:
  61              	.LBB2:
  16:.\main.c      ****     //Endless loop...
  17:.\main.c      ****     for(;;)
  18:.\main.c      ****     {      
  19:.\main.c      ****         int i;
  20:.\main.c      ****         for(i = 0; i < 16; i++) //Update each of the 16 pixels in turn here
  62              		.loc 1 20 0
  63 0014 0024     		movs	r4, #0
  64 0016 AAE0     		b	.L2
  65              	.LVL1:
  66              	.L3:
  21:.\main.c      ****         {
  22:.\main.c      ****             //Compute Green Component
  23:.\main.c      ****             pPixelArray[i*3] = (unsigned int)255.0 * pow(((1.0+sin(offset+(2.0*3.14159267/16.0)*((f
  67              		.loc 1 23 0 discriminator 3
  68 0018 04EB4405 		add	r5, r4, r4, lsl #1
  69 001c 2046     		mov	r0, r4
  70 001e FFF7FEFF 		bl	__aeabi_i2f
  71              	.LVL2:
  72 0022 FFF7FEFF 		bl	__aeabi_f2d
  73              	.LVL3:
  74 0026 0646     		mov	r6, r0
  75 0028 0F46     		mov	r7, r1
  76 002a 6BA3     		adr	r3, .L9+8
  77 002c D3E90023 		ldrd	r2, [r3]
  78 0030 FFF7FEFF 		bl	__aeabi_dadd
  79              	.LVL4:
  80 0034 6AA3     		adr	r3, .L9+16
  81 0036 D3E90023 		ldrd	r2, [r3]
  82 003a FFF7FEFF 		bl	__aeabi_dmul
  83              	.LVL5:
  84 003e 8046     		mov	r8, r0
  85 0040 8946     		mov	r9, r1
  86 0042 DFF8D0B1 		ldr	fp, .L9+68
  87 0046 DBF80000 		ldr	r0, [fp]	@ float
  88 004a FFF7FEFF 		bl	__aeabi_f2d
  89              	.LVL6:
  90 004e 4246     		mov	r2, r8
  91 0050 4B46     		mov	r3, r9
ARM GAS  C:\Users\Nick\AppData\Local\Temp\cc7xntia.s 			page 3


  92 0052 FFF7FEFF 		bl	__aeabi_dadd
  93              	.LVL7:
  94 0056 FFF7FEFF 		bl	sin
  95              	.LVL8:
  96 005a 0022     		movs	r2, #0
  97 005c 6B4B     		ldr	r3, .L9+60
  98 005e FFF7FEFF 		bl	__aeabi_dadd
  99              	.LVL9:
 100 0062 0022     		movs	r2, #0
 101 0064 6A4B     		ldr	r3, .L9+64
 102 0066 FFF7FEFF 		bl	__aeabi_dmul
 103              	.LVL10:
 104 006a 8046     		mov	r8, r0
 105 006c 8946     		mov	r9, r1
 106 006e DFF8A8A1 		ldr	r10, .L9+72
 107 0072 DAF80000 		ldr	r0, [r10]	@ float
 108 0076 FFF7FEFF 		bl	__aeabi_f2d
 109              	.LVL11:
 110 007a 0246     		mov	r2, r0
 111 007c 0B46     		mov	r3, r1
 112 007e 4046     		mov	r0, r8
 113 0080 4946     		mov	r1, r9
 114 0082 FFF7FEFF 		bl	pow
 115              	.LVL12:
 116 0086 58A3     		adr	r3, .L9+24
 117 0088 D3E90023 		ldrd	r2, [r3]
 118 008c FFF7FEFF 		bl	__aeabi_dmul
 119              	.LVL13:
 120 0090 DFF87481 		ldr	r8, .L9+56
 121 0094 FFF7FEFF 		bl	__aeabi_d2uiz
 122              	.LVL14:
 123 0098 08F80500 		strb	r0, [r8, r5]
  24:.\main.c      ****             //Compute Red Component
  25:.\main.c      ****             pPixelArray[1+i*3] = (unsigned int)255.0 * pow(((1.0+sin(offset+(2.0*3.14159267/16.0)*(
 124              		.loc 1 25 0 discriminator 3
 125 009c 05F10109 		add	r9, r5, #1
 126 00a0 3046     		mov	r0, r6
 127 00a2 3946     		mov	r1, r7
 128 00a4 52A3     		adr	r3, .L9+32
 129 00a6 D3E90023 		ldrd	r2, [r3]
 130 00aa FFF7FEFF 		bl	__aeabi_dadd
 131              	.LVL15:
 132 00ae 4CA3     		adr	r3, .L9+16
 133 00b0 D3E90023 		ldrd	r2, [r3]
 134 00b4 FFF7FEFF 		bl	__aeabi_dmul
 135              	.LVL16:
 136 00b8 CDE90001 		strd	r0, [sp]
 137 00bc DBF80000 		ldr	r0, [fp]	@ float
 138 00c0 FFF7FEFF 		bl	__aeabi_f2d
 139              	.LVL17:
 140 00c4 DDE90023 		ldrd	r2, [sp]
 141 00c8 FFF7FEFF 		bl	__aeabi_dadd
 142              	.LVL18:
 143 00cc FFF7FEFF 		bl	sin
 144              	.LVL19:
 145 00d0 0022     		movs	r2, #0
 146 00d2 4E4B     		ldr	r3, .L9+60
ARM GAS  C:\Users\Nick\AppData\Local\Temp\cc7xntia.s 			page 4


 147 00d4 FFF7FEFF 		bl	__aeabi_dadd
 148              	.LVL20:
 149 00d8 0022     		movs	r2, #0
 150 00da 4D4B     		ldr	r3, .L9+64
 151 00dc FFF7FEFF 		bl	__aeabi_dmul
 152              	.LVL21:
 153 00e0 CDE90001 		strd	r0, [sp]
 154 00e4 DAF80000 		ldr	r0, [r10]	@ float
 155 00e8 FFF7FEFF 		bl	__aeabi_f2d
 156              	.LVL22:
 157 00ec 0246     		mov	r2, r0
 158 00ee 0B46     		mov	r3, r1
 159 00f0 DDE90001 		ldrd	r0, [sp]
 160 00f4 FFF7FEFF 		bl	pow
 161              	.LVL23:
 162 00f8 3BA3     		adr	r3, .L9+24
 163 00fa D3E90023 		ldrd	r2, [r3]
 164 00fe FFF7FEFF 		bl	__aeabi_dmul
 165              	.LVL24:
 166 0102 FFF7FEFF 		bl	__aeabi_d2uiz
 167              	.LVL25:
 168 0106 08F80900 		strb	r0, [r8, r9]
  26:.\main.c      ****             //Compute Blue Component
  27:.\main.c      ****             pPixelArray[2+i*3] = (unsigned int)255.0 * pow(((1.0+sin(offset+(2.0*3.14159267/16.0)*(
 169              		.loc 1 27 0 discriminator 3
 170 010a 0235     		adds	r5, r5, #2
 171 010c 3046     		mov	r0, r6
 172 010e 3946     		mov	r1, r7
 173 0110 33A3     		adr	r3, .L9+16
 174 0112 D3E90023 		ldrd	r2, [r3]
 175 0116 FFF7FEFF 		bl	__aeabi_dmul
 176              	.LVL26:
 177 011a 0646     		mov	r6, r0
 178 011c 0F46     		mov	r7, r1
 179 011e DBF80000 		ldr	r0, [fp]	@ float
 180 0122 FFF7FEFF 		bl	__aeabi_f2d
 181              	.LVL27:
 182 0126 3246     		mov	r2, r6
 183 0128 3B46     		mov	r3, r7
 184 012a FFF7FEFF 		bl	__aeabi_dadd
 185              	.LVL28:
 186 012e FFF7FEFF 		bl	sin
 187              	.LVL29:
 188 0132 0022     		movs	r2, #0
 189 0134 354B     		ldr	r3, .L9+60
 190 0136 FFF7FEFF 		bl	__aeabi_dadd
 191              	.LVL30:
 192 013a 0022     		movs	r2, #0
 193 013c 344B     		ldr	r3, .L9+64
 194 013e FFF7FEFF 		bl	__aeabi_dmul
 195              	.LVL31:
 196 0142 0646     		mov	r6, r0
 197 0144 0F46     		mov	r7, r1
 198 0146 DAF80000 		ldr	r0, [r10]	@ float
 199 014a FFF7FEFF 		bl	__aeabi_f2d
 200              	.LVL32:
 201 014e 0246     		mov	r2, r0
ARM GAS  C:\Users\Nick\AppData\Local\Temp\cc7xntia.s 			page 5


 202 0150 0B46     		mov	r3, r1
 203 0152 3046     		mov	r0, r6
 204 0154 3946     		mov	r1, r7
 205 0156 FFF7FEFF 		bl	pow
 206              	.LVL33:
 207 015a 23A3     		adr	r3, .L9+24
 208 015c D3E90023 		ldrd	r2, [r3]
 209 0160 FFF7FEFF 		bl	__aeabi_dmul
 210              	.LVL34:
 211 0164 FFF7FEFF 		bl	__aeabi_d2uiz
 212              	.LVL35:
 213 0168 08F80500 		strb	r0, [r8, r5]
  20:.\main.c      ****         {
 214              		.loc 1 20 0 discriminator 3
 215 016c 0134     		adds	r4, r4, #1
 216              	.LVL36:
 217              	.L2:
  20:.\main.c      ****         {
 218              		.loc 1 20 0 is_stmt 0 discriminator 1
 219 016e 0F2C     		cmp	r4, #15
 220 0170 7FF752AF 		ble	.L3
  28:.\main.c      ****         }
  29:.\main.c      ****         //Call NeoPixel update function (non blocking) to trigger DMA pixel update
  30:.\main.c      ****         NP_Update();
 221              		.loc 1 30 0 is_stmt 1
 222 0174 FFF7FEFF 		bl	NP_Update
 223              	.LVL37:
  31:.\main.c      ****         //Update animation vars
  32:.\main.c      ****         offset+=0.2;
 224              		.loc 1 32 0
 225 0178 264C     		ldr	r4, .L9+68
 226              	.LVL38:
 227 017a 2068     		ldr	r0, [r4]	@ float
 228 017c FFF7FEFF 		bl	__aeabi_f2d
 229              	.LVL39:
 230 0180 1DA3     		adr	r3, .L9+40
 231 0182 D3E90023 		ldrd	r2, [r3]
 232 0186 FFF7FEFF 		bl	__aeabi_dadd
 233              	.LVL40:
 234 018a FFF7FEFF 		bl	__aeabi_d2f
 235              	.LVL41:
 236 018e 2060     		str	r0, [r4]	@ float
  33:.\main.c      ****         power+=Deltapower;
 237              		.loc 1 33 0
 238 0190 214D     		ldr	r5, .L9+72
 239 0192 6C68     		ldr	r4, [r5, #4]	@ float
 240 0194 2046     		mov	r0, r4
 241 0196 2968     		ldr	r1, [r5]	@ float
 242 0198 FFF7FEFF 		bl	__aeabi_fadd
 243              	.LVL42:
 244 019c 0646     		mov	r6, r0
 245 019e 2860     		str	r0, [r5]	@ float
  34:.\main.c      ****         if((power > 10) || (power < 0.1)) Deltapower = -Deltapower;
 246              		.loc 1 34 0
 247 01a0 1E49     		ldr	r1, .L9+76
 248 01a2 FFF7FEFF 		bl	__aeabi_fcmpgt
 249              	.LVL43:
ARM GAS  C:\Users\Nick\AppData\Local\Temp\cc7xntia.s 			page 6


 250 01a6 40B9     		cbnz	r0, .L4
 251              		.loc 1 34 0 is_stmt 0 discriminator 2
 252 01a8 3046     		mov	r0, r6
 253 01aa FFF7FEFF 		bl	__aeabi_f2d
 254              	.LVL44:
 255 01ae 14A3     		adr	r3, .L9+48
 256 01b0 D3E90023 		ldrd	r2, [r3]
 257 01b4 FFF7FEFF 		bl	__aeabi_dcmplt
 258              	.LVL45:
 259 01b8 18B1     		cbz	r0, .L5
 260              	.L4:
 261              		.loc 1 34 0 discriminator 3
 262 01ba 04F10044 		add	r4, r4, #-2147483648
 263 01be 164B     		ldr	r3, .L9+72
 264 01c0 5C60     		str	r4, [r3, #4]	@ float
 265              	.L5:
  35:.\main.c      **** 
  36:.\main.c      ****        //Delay before next frame
  37:.\main.c      ****         CyDelay(5);
 266              		.loc 1 37 0 is_stmt 1
 267 01c2 0520     		movs	r0, #5
 268 01c4 FFF7FEFF 		bl	CyDelay
 269              	.LVL46:
 270              	.LBE2:
  38:.\main.c      ****     }
 271              		.loc 1 38 0
 272 01c8 24E7     		b	.L7
 273              	.L10:
 274 01ca 00BFAFF3 		.align	3
 274      0080
 275              	.L9:
 276 01d0 9A999999 		.word	-1717986918
 277 01d4 99992940 		.word	1076468121
 278 01d8 A245B6F3 		.word	-206158430
 279 01dc FD541540 		.word	1075139837
 280 01e0 CD067856 		.word	1450706637
 281 01e4 FB21D93F 		.word	1071194619
 282 01e8 00000000 		.word	0
 283 01ec 00E06F40 		.word	1081073664
 284 01f0 2FDD2406 		.word	103079215
 285 01f4 81552540 		.word	1076188545
 286 01f8 9A999999 		.word	-1717986918
 287 01fc 9999C93F 		.word	1070176665
 288 0200 9A999999 		.word	-1717986918
 289 0204 9999B93F 		.word	1069128089
 290 0208 00000000 		.word	pPixelArray
 291 020c 0000F03F 		.word	1072693248
 292 0210 0000E03F 		.word	1071644672
 293 0214 00000000 		.word	.LANCHOR0
 294 0218 00000000 		.word	.LANCHOR1
 295 021c 00002041 		.word	1092616192
 296              		.cfi_endproc
 297              	.LFE63:
 298              		.size	main, .-main
 299              		.global	offset
 300              		.global	Deltapower
 301              		.global	power
ARM GAS  C:\Users\Nick\AppData\Local\Temp\cc7xntia.s 			page 7


 302              		.comm	pPixelArray,48,4
 303              		.comm	NP_g_nFrameBufferSize,4,4
 304              		.comm	NP_g_pFrameBuffer,4,4
 305              		.comm	NP_g_bOwnsBuffer,1,1
 306              		.comm	NP_g_nDMA_TD,1,1
 307              		.comm	NP_g_nDMA_Chan,1,1
 308              		.comm	NP_g_nNumberOfPixels,4,4
 309              		.data
 310              		.align	2
 311              		.set	.LANCHOR1,. + 0
 312              		.type	power, %object
 313              		.size	power, 4
 314              	power:
 315 0000 0000803F 		.word	1065353216
 316              		.type	Deltapower, %object
 317              		.size	Deltapower, 4
 318              	Deltapower:
 319 0004 0AD7A33B 		.word	1000593162
 320              		.bss
 321              		.align	2
 322              		.set	.LANCHOR0,. + 0
 323              		.type	offset, %object
 324              		.size	offset, 4
 325              	offset:
 326 0000 00000000 		.space	4
 327              		.text
 328              	.Letext0:
 329              		.file 2 "c:\\program files (x86)\\cypress\\psoc creator\\3.3\\psoc creator\\import\\gnu\\arm\\4.9.
 330              		.file 3 "c:\\program files (x86)\\cypress\\psoc creator\\3.3\\psoc creator\\import\\gnu\\arm\\4.9.
 331              		.file 4 "Generated_Source\\PSoC5/cytypes.h"
 332              		.file 5 "Generated_Source\\PSoC5/NP_funcs.h"
 333              		.file 6 "Generated_Source\\PSoC5/core_cm3.h"
 334              		.file 7 "c:\\program files (x86)\\cypress\\psoc creator\\3.3\\psoc creator\\import\\gnu\\arm\\4.9.
 335              		.file 8 "Generated_Source\\PSoC5/CyLib.h"