ARM GAS  C:\Users\Nick\AppData\Local\Temp\ccGbuigH.s 			page 1


   1              		.syntax unified
   2              		.cpu cortex-m3
   3              		.fpu softvfp
   4              		.eabi_attribute 20, 1
   5              		.eabi_attribute 21, 1
   6              		.eabi_attribute 23, 3
   7              		.eabi_attribute 24, 1
   8              		.eabi_attribute 25, 1
   9              		.eabi_attribute 26, 1
  10              		.eabi_attribute 30, 1
  11              		.eabi_attribute 34, 1
  12              		.eabi_attribute 18, 4
  13              		.thumb
  14              		.file	"NP_funcs.c"
  15              		.text
  16              	.Ltext0:
  17              		.cfi_sections	.debug_frame
  18              		.global	__aeabi_ddiv
  19              		.global	__aeabi_dcmpgt
  20              		.global	__aeabi_d2uiz
  21              		.section	.text.NP_Start,"ax",%progbits
  22              		.align	2
  23              		.global	NP_Start
  24              		.thumb
  25              		.thumb_func
  26              		.type	NP_Start, %function
  27              	NP_Start:
  28              	.LFB0:
  29              		.file 1 ".\\Generated_Source\\PSoC5\\NP_funcs.c"
   1:.\Generated_Source\PSoC5/NP_funcs.c **** /* ========================================
   2:.\Generated_Source\PSoC5/NP_funcs.c ****  *
   3:.\Generated_Source\PSoC5/NP_funcs.c ****  * API function definitions for NeoPixel
   4:.\Generated_Source\PSoC5/NP_funcs.c ****  * PSOC5 driver component.
   5:.\Generated_Source\PSoC5/NP_funcs.c ****  * 
   6:.\Generated_Source\PSoC5/NP_funcs.c ****  * Nick Burns (PolyVinalDistillate)
   7:.\Generated_Source\PSoC5/NP_funcs.c ****  *
   8:.\Generated_Source\PSoC5/NP_funcs.c ****  * ========================================
   9:.\Generated_Source\PSoC5/NP_funcs.c **** */
  10:.\Generated_Source\PSoC5/NP_funcs.c **** #include "NP_funcs.h"
  11:.\Generated_Source\PSoC5/NP_funcs.c **** 
  12:.\Generated_Source\PSoC5/NP_funcs.c **** volatile void* NP_Start(unsigned int nNumberOfNeopixels, void* pBuffer, double fSpeedMHz)
  13:.\Generated_Source\PSoC5/NP_funcs.c **** {
  30              		.loc 1 13 0
  31              		.cfi_startproc
  32              		@ args = 0, pretend = 0, frame = 0
  33              		@ frame_needed = 0, uses_anonymous_args = 0
  34              	.LVL0:
  35 0000 2DE9F047 		push	{r4, r5, r6, r7, r8, r9, r10, lr}
  36              		.cfi_def_cfa_offset 32
  37              		.cfi_offset 4, -32
  38              		.cfi_offset 5, -28
  39              		.cfi_offset 6, -24
  40              		.cfi_offset 7, -20
  41              		.cfi_offset 8, -16
  42              		.cfi_offset 9, -12
  43              		.cfi_offset 10, -8
  44              		.cfi_offset 14, -4
ARM GAS  C:\Users\Nick\AppData\Local\Temp\ccGbuigH.s 			page 2


  45 0004 0446     		mov	r4, r0
  46 0006 8A46     		mov	r10, r1
  14:.\Generated_Source\PSoC5/NP_funcs.c ****     //work out cycles required at specified clock speed...
  15:.\Generated_Source\PSoC5/NP_funcs.c ****     NP_g_pFrameBuffer = NULL;
  47              		.loc 1 15 0
  48 0008 0020     		movs	r0, #0
  49              	.LVL1:
  50 000a 3D49     		ldr	r1, .L8+24
  51              	.LVL2:
  52 000c 0860     		str	r0, [r1]
  16:.\Generated_Source\PSoC5/NP_funcs.c ****     if((1.25/(1.0/(fSpeedMHz))) > 255) return NULL;
  53              		.loc 1 16 0
  54 000e 0020     		movs	r0, #0
  55 0010 3C49     		ldr	r1, .L8+28
  56 0012 FFF7FEFF 		bl	__aeabi_ddiv
  57              	.LVL3:
  58 0016 0646     		mov	r6, r0
  59 0018 0F46     		mov	r7, r1
  60 001a 0020     		movs	r0, #0
  61 001c 3A49     		ldr	r1, .L8+32
  62 001e 3246     		mov	r2, r6
  63 0020 3B46     		mov	r3, r7
  64 0022 FFF7FEFF 		bl	__aeabi_ddiv
  65              	.LVL4:
  66 0026 8046     		mov	r8, r0
  67 0028 8946     		mov	r9, r1
  68 002a 2FA3     		adr	r3, .L8
  69 002c D3E90023 		ldrd	r2, [r3]
  70 0030 FFF7FEFF 		bl	__aeabi_dcmpgt
  71              	.LVL5:
  72 0034 0028     		cmp	r0, #0
  73 0036 54D1     		bne	.L6
  17:.\Generated_Source\PSoC5/NP_funcs.c ****     
  18:.\Generated_Source\PSoC5/NP_funcs.c ****     unsigned char fCyclesTotal = (unsigned char)(1.25/(1.0/(fSpeedMHz)));
  74              		.loc 1 18 0
  75 0038 4046     		mov	r0, r8
  76 003a 4946     		mov	r1, r9
  77 003c FFF7FEFF 		bl	__aeabi_d2uiz
  78              	.LVL6:
  79 0040 5FFA80F8 		uxtb	r8, r0
  80              	.LVL7:
  19:.\Generated_Source\PSoC5/NP_funcs.c ****     unsigned char fCyclesOn = (unsigned char)(0.7/(1.0/(fSpeedMHz)));
  81              		.loc 1 19 0
  82 0044 2AA1     		adr	r1, .L8+8
  83 0046 D1E90001 		ldrd	r0, [r1]
  84 004a 3246     		mov	r2, r6
  85 004c 3B46     		mov	r3, r7
  86 004e FFF7FEFF 		bl	__aeabi_ddiv
  87              	.LVL8:
  88 0052 FFF7FEFF 		bl	__aeabi_d2uiz
  89              	.LVL9:
  90 0056 C5B2     		uxtb	r5, r0
  91              	.LVL10:
  20:.\Generated_Source\PSoC5/NP_funcs.c ****     unsigned char fCyclesOff = (unsigned char)(0.35/(1.0/(fSpeedMHz)));
  92              		.loc 1 20 0
  93 0058 27A1     		adr	r1, .L8+16
  94 005a D1E90001 		ldrd	r0, [r1]
ARM GAS  C:\Users\Nick\AppData\Local\Temp\ccGbuigH.s 			page 3


  95 005e 3246     		mov	r2, r6
  96 0060 3B46     		mov	r3, r7
  97 0062 FFF7FEFF 		bl	__aeabi_ddiv
  98              	.LVL11:
  99 0066 FFF7FEFF 		bl	__aeabi_d2uiz
 100              	.LVL12:
 101 006a C6B2     		uxtb	r6, r0
 102              	.LVL13:
  21:.\Generated_Source\PSoC5/NP_funcs.c ****     
  22:.\Generated_Source\PSoC5/NP_funcs.c ****     NP_g_nFrameBufferSize = nNumberOfNeopixels*3;
 103              		.loc 1 22 0
 104 006c 04EB4404 		add	r4, r4, r4, lsl #1
 105              	.LVL14:
 106 0070 264B     		ldr	r3, .L8+36
 107 0072 1C60     		str	r4, [r3]
  23:.\Generated_Source\PSoC5/NP_funcs.c ****     //Configure for 19.2 MHz operation
  24:.\Generated_Source\PSoC5/NP_funcs.c ****     NP_Neo_BITCNT_Start();        //Counts bits in a byte
 108              		.loc 1 24 0
 109 0074 FFF7FEFF 		bl	NP_Neo_BITCNT_Start
 110              	.LVL15:
  25:.\Generated_Source\PSoC5/NP_funcs.c ****     NP_Neo_ONTime_Start();        //Sets number of clocks for logic 1 pulse width
 111              		.loc 1 25 0
 112 0078 FFF7FEFF 		bl	NP_Neo_ONTime_Start
 113              	.LVL16:
  26:.\Generated_Source\PSoC5/NP_funcs.c ****     NP_Neo_OFFTime_Start();       //clocks for logic 0 pulse width
 114              		.loc 1 26 0
 115 007c FFF7FEFF 		bl	NP_Neo_OFFTime_Start
 116              	.LVL17:
  27:.\Generated_Source\PSoC5/NP_funcs.c ****     //Sets bitrate frequency in number of clocks. Must be larger than largest of above two counter 
  28:.\Generated_Source\PSoC5/NP_funcs.c ****     CY_SET_REG8(NP_Neo_DPTH_D1_PTR, fCyclesTotal);
 117              		.loc 1 28 0
 118 0080 234B     		ldr	r3, .L8+40
 119 0082 83F80080 		strb	r8, [r3]
  29:.\Generated_Source\PSoC5/NP_funcs.c ****     NP_Neo_OFFTime_WritePeriod(fCyclesOff-1);
 120              		.loc 1 29 0
 121 0086 701E     		subs	r0, r6, #1
 122 0088 C0B2     		uxtb	r0, r0
 123 008a FFF7FEFF 		bl	NP_Neo_OFFTime_WritePeriod
 124              	.LVL18:
  30:.\Generated_Source\PSoC5/NP_funcs.c ****     NP_Neo_ONTime_WritePeriod(fCyclesOn-1);
 125              		.loc 1 30 0
 126 008e 681E     		subs	r0, r5, #1
 127 0090 C0B2     		uxtb	r0, r0
 128 0092 FFF7FEFF 		bl	NP_Neo_ONTime_WritePeriod
 129              	.LVL19:
  31:.\Generated_Source\PSoC5/NP_funcs.c ****     //Setup a DMA channel
  32:.\Generated_Source\PSoC5/NP_funcs.c ****     NP_g_nDMA_Chan = NP_DMA_DmaInitialize(NP_DMA_BYTES_PER_BURST, 
 130              		.loc 1 32 0
 131 0096 0120     		movs	r0, #1
 132 0098 0146     		mov	r1, r0
 133 009a 41F6FF72 		movw	r2, #8191
 134 009e 4FF48043 		mov	r3, #16384
 135 00a2 FFF7FEFF 		bl	NP_DMA_DmaInitialize
 136              	.LVL20:
 137 00a6 1B4B     		ldr	r3, .L8+44
 138 00a8 1870     		strb	r0, [r3]
  33:.\Generated_Source\PSoC5/NP_funcs.c ****                                                         NP_DMA_REQUEST_PER_BURST, 
ARM GAS  C:\Users\Nick\AppData\Local\Temp\ccGbuigH.s 			page 4


  34:.\Generated_Source\PSoC5/NP_funcs.c ****                                                         HI16(NP_DMA_SRC_BASE), 
  35:.\Generated_Source\PSoC5/NP_funcs.c ****                                                         HI16(NP_DMA_DST_BASE));
  36:.\Generated_Source\PSoC5/NP_funcs.c ****     
  37:.\Generated_Source\PSoC5/NP_funcs.c ****     if(pBuffer == NULL)
 139              		.loc 1 37 0
 140 00aa BAF1000F 		cmp	r10, #0
 141 00ae 0ED1     		bne	.L3
  38:.\Generated_Source\PSoC5/NP_funcs.c ****     {
  39:.\Generated_Source\PSoC5/NP_funcs.c ****         NP_g_pFrameBuffer = malloc(nNumberOfNeopixels*3);
 142              		.loc 1 39 0
 143 00b0 2046     		mov	r0, r4
 144 00b2 FFF7FEFF 		bl	malloc
 145              	.LVL21:
 146 00b6 124B     		ldr	r3, .L8+24
 147 00b8 1860     		str	r0, [r3]
  40:.\Generated_Source\PSoC5/NP_funcs.c ****         if(NP_g_pFrameBuffer != NULL)
 148              		.loc 1 40 0
 149 00ba 18B1     		cbz	r0, .L4
  41:.\Generated_Source\PSoC5/NP_funcs.c ****         {
  42:.\Generated_Source\PSoC5/NP_funcs.c ****             NP_g_bOwnsBuffer = 1;
 150              		.loc 1 42 0
 151 00bc 0122     		movs	r2, #1
 152 00be 164B     		ldr	r3, .L8+48
 153 00c0 1A70     		strb	r2, [r3]
 154 00c2 0AE0     		b	.L5
 155              	.L4:
  43:.\Generated_Source\PSoC5/NP_funcs.c ****         }
  44:.\Generated_Source\PSoC5/NP_funcs.c ****         else
  45:.\Generated_Source\PSoC5/NP_funcs.c ****         {
  46:.\Generated_Source\PSoC5/NP_funcs.c ****             NP_g_nFrameBufferSize = 0;
 156              		.loc 1 46 0
 157 00c4 0020     		movs	r0, #0
 158 00c6 114B     		ldr	r3, .L8+36
 159 00c8 1860     		str	r0, [r3]
  47:.\Generated_Source\PSoC5/NP_funcs.c ****             return NULL;
 160              		.loc 1 47 0
 161 00ca BDE8F087 		pop	{r4, r5, r6, r7, r8, r9, r10, pc}
 162              	.LVL22:
 163              	.L3:
  48:.\Generated_Source\PSoC5/NP_funcs.c ****         }
  49:.\Generated_Source\PSoC5/NP_funcs.c ****     }
  50:.\Generated_Source\PSoC5/NP_funcs.c ****     else
  51:.\Generated_Source\PSoC5/NP_funcs.c ****     {
  52:.\Generated_Source\PSoC5/NP_funcs.c ****         NP_g_pFrameBuffer = pBuffer;
 164              		.loc 1 52 0
 165 00ce 0C4B     		ldr	r3, .L8+24
 166 00d0 C3F800A0 		str	r10, [r3]
  53:.\Generated_Source\PSoC5/NP_funcs.c ****         NP_g_bOwnsBuffer = 0;
 167              		.loc 1 53 0
 168 00d4 0022     		movs	r2, #0
 169 00d6 104B     		ldr	r3, .L8+48
 170 00d8 1A70     		strb	r2, [r3]
 171              	.L5:
  54:.\Generated_Source\PSoC5/NP_funcs.c ****     }
  55:.\Generated_Source\PSoC5/NP_funcs.c ****     return NP_g_pFrameBuffer;
 172              		.loc 1 55 0
 173 00da 094B     		ldr	r3, .L8+24
ARM GAS  C:\Users\Nick\AppData\Local\Temp\ccGbuigH.s 			page 5


 174 00dc 1868     		ldr	r0, [r3]
 175 00de BDE8F087 		pop	{r4, r5, r6, r7, r8, r9, r10, pc}
 176              	.LVL23:
 177              	.L6:
  16:.\Generated_Source\PSoC5/NP_funcs.c ****     
 178              		.loc 1 16 0
 179 00e2 0020     		movs	r0, #0
  56:.\Generated_Source\PSoC5/NP_funcs.c **** }
 180              		.loc 1 56 0
 181 00e4 BDE8F087 		pop	{r4, r5, r6, r7, r8, r9, r10, pc}
 182              	.LVL24:
 183              	.L9:
 184              		.align	3
 185              	.L8:
 186 00e8 00000000 		.word	0
 187 00ec 00E06F40 		.word	1081073664
 188 00f0 66666666 		.word	1717986918
 189 00f4 6666E63F 		.word	1072064102
 190 00f8 66666666 		.word	1717986918
 191 00fc 6666D63F 		.word	1071015526
 192 0100 00000000 		.word	NP_g_pFrameBuffer
 193 0104 0000F03F 		.word	1072693248
 194 0108 0000F43F 		.word	1072955392
 195 010c 00000000 		.word	NP_g_nFrameBufferSize
 196 0110 31640040 		.word	1073767473
 197 0114 00000000 		.word	NP_g_nDMA_Chan
 198 0118 00000000 		.word	NP_g_bOwnsBuffer
 199              		.cfi_endproc
 200              	.LFE0:
 201              		.size	NP_Start, .-NP_Start
 202 011c AFF30080 		.section	.text.NP_Update,"ax",%progbits
 203              		.align	2
 204              		.global	NP_Update
 205              		.thumb
 206              		.thumb_func
 207              		.type	NP_Update, %function
 208              	NP_Update:
 209              	.LFB1:
  57:.\Generated_Source\PSoC5/NP_funcs.c **** 
  58:.\Generated_Source\PSoC5/NP_funcs.c **** //copy frame buffer to LEDs
  59:.\Generated_Source\PSoC5/NP_funcs.c **** void NP_Update()
  60:.\Generated_Source\PSoC5/NP_funcs.c **** {
 210              		.loc 1 60 0
 211              		.cfi_startproc
 212              		@ args = 0, pretend = 0, frame = 0
 213              		@ frame_needed = 0, uses_anonymous_args = 0
 214 0000 38B5     		push	{r3, r4, r5, lr}
 215              		.cfi_def_cfa_offset 16
 216              		.cfi_offset 3, -16
 217              		.cfi_offset 4, -12
 218              		.cfi_offset 5, -8
 219              		.cfi_offset 14, -4
  61:.\Generated_Source\PSoC5/NP_funcs.c ****     if(NP_g_pFrameBuffer)
 220              		.loc 1 61 0
 221 0002 0F4B     		ldr	r3, .L13
 222 0004 1B68     		ldr	r3, [r3]
 223 0006 CBB1     		cbz	r3, .L10
ARM GAS  C:\Users\Nick\AppData\Local\Temp\ccGbuigH.s 			page 6


  62:.\Generated_Source\PSoC5/NP_funcs.c ****     {
  63:.\Generated_Source\PSoC5/NP_funcs.c ****         NP_g_nDMA_TD = CyDmaTdAllocate();
 224              		.loc 1 63 0
 225 0008 FFF7FEFF 		bl	CyDmaTdAllocate
 226              	.LVL25:
 227 000c 0D4C     		ldr	r4, .L13+4
 228 000e 2070     		strb	r0, [r4]
  64:.\Generated_Source\PSoC5/NP_funcs.c ****         CyDmaTdSetConfiguration(NP_g_nDMA_TD, NP_g_nFrameBufferSize, CY_DMA_DISABLE_TD, TD_INC_SRC_
 229              		.loc 1 64 0
 230 0010 0D4B     		ldr	r3, .L13+8
 231 0012 1988     		ldrh	r1, [r3]
 232 0014 FE22     		movs	r2, #254
 233 0016 2123     		movs	r3, #33
 234 0018 FFF7FEFF 		bl	CyDmaTdSetConfiguration
 235              	.LVL26:
  65:.\Generated_Source\PSoC5/NP_funcs.c ****         CyDmaTdSetAddress(NP_g_nDMA_TD, LO16((uint32)NP_g_pFrameBuffer), LO16((uint32)NP_Neo_DPTH_F
 236              		.loc 1 65 0
 237 001c 2078     		ldrb	r0, [r4]	@ zero_extendqisi2
 238 001e 084B     		ldr	r3, .L13
 239 0020 1988     		ldrh	r1, [r3]
 240 0022 46F24142 		movw	r2, #25665
 241 0026 FFF7FEFF 		bl	CyDmaTdSetAddress
 242              	.LVL27:
  66:.\Generated_Source\PSoC5/NP_funcs.c ****         CyDmaChSetInitialTd(NP_g_nDMA_Chan, NP_g_nDMA_TD);
 243              		.loc 1 66 0
 244 002a 084D     		ldr	r5, .L13+12
 245 002c 2878     		ldrb	r0, [r5]	@ zero_extendqisi2
 246 002e 2178     		ldrb	r1, [r4]	@ zero_extendqisi2
 247 0030 FFF7FEFF 		bl	CyDmaChSetInitialTd
 248              	.LVL28:
  67:.\Generated_Source\PSoC5/NP_funcs.c ****         CyDmaChEnable(NP_g_nDMA_Chan, 1);
 249              		.loc 1 67 0
 250 0034 2878     		ldrb	r0, [r5]	@ zero_extendqisi2
 251 0036 0121     		movs	r1, #1
 252 0038 FFF7FEFF 		bl	CyDmaChEnable
 253              	.LVL29:
 254              	.L10:
 255 003c 38BD     		pop	{r3, r4, r5, pc}
 256              	.L14:
 257 003e 00BF     		.align	2
 258              	.L13:
 259 0040 00000000 		.word	NP_g_pFrameBuffer
 260 0044 00000000 		.word	NP_g_nDMA_TD
 261 0048 00000000 		.word	NP_g_nFrameBufferSize
 262 004c 00000000 		.word	NP_g_nDMA_Chan
 263              		.cfi_endproc
 264              	.LFE1:
 265              		.size	NP_Update, .-NP_Update
 266              		.section	.text.NP_Stop,"ax",%progbits
 267              		.align	2
 268              		.global	NP_Stop
 269              		.thumb
 270              		.thumb_func
 271              		.type	NP_Stop, %function
 272              	NP_Stop:
 273              	.LFB2:
  68:.\Generated_Source\PSoC5/NP_funcs.c ****     }
ARM GAS  C:\Users\Nick\AppData\Local\Temp\ccGbuigH.s 			page 7


  69:.\Generated_Source\PSoC5/NP_funcs.c **** }
  70:.\Generated_Source\PSoC5/NP_funcs.c **** 
  71:.\Generated_Source\PSoC5/NP_funcs.c **** void NP_Stop()
  72:.\Generated_Source\PSoC5/NP_funcs.c **** {
 274              		.loc 1 72 0
 275              		.cfi_startproc
 276              		@ args = 0, pretend = 0, frame = 0
 277              		@ frame_needed = 0, uses_anonymous_args = 0
 278 0000 08B5     		push	{r3, lr}
 279              		.cfi_def_cfa_offset 8
 280              		.cfi_offset 3, -8
 281              		.cfi_offset 14, -4
  73:.\Generated_Source\PSoC5/NP_funcs.c ****     if(NP_g_pFrameBuffer != NULL)
 282              		.loc 1 73 0
 283 0002 0B4B     		ldr	r3, .L18
 284 0004 1B68     		ldr	r3, [r3]
 285 0006 73B1     		cbz	r3, .L16
  74:.\Generated_Source\PSoC5/NP_funcs.c ****     {
  75:.\Generated_Source\PSoC5/NP_funcs.c ****         CyDmaChFree(NP_g_nDMA_Chan);
 286              		.loc 1 75 0
 287 0008 0A4B     		ldr	r3, .L18+4
 288 000a 1878     		ldrb	r0, [r3]	@ zero_extendqisi2
 289 000c FFF7FEFF 		bl	CyDmaChFree
 290              	.LVL30:
  76:.\Generated_Source\PSoC5/NP_funcs.c ****         CyDmaTdFree(NP_g_nDMA_TD);
 291              		.loc 1 76 0
 292 0010 094B     		ldr	r3, .L18+8
 293 0012 1878     		ldrb	r0, [r3]	@ zero_extendqisi2
 294 0014 FFF7FEFF 		bl	CyDmaTdFree
 295              	.LVL31:
  77:.\Generated_Source\PSoC5/NP_funcs.c ****         if(NP_g_bOwnsBuffer)
 296              		.loc 1 77 0
 297 0018 084B     		ldr	r3, .L18+12
 298 001a 1B78     		ldrb	r3, [r3]	@ zero_extendqisi2
 299 001c 1BB1     		cbz	r3, .L16
  78:.\Generated_Source\PSoC5/NP_funcs.c ****             free((void*)NP_g_pFrameBuffer);
 300              		.loc 1 78 0
 301 001e 044B     		ldr	r3, .L18
 302 0020 1868     		ldr	r0, [r3]
 303 0022 FFF7FEFF 		bl	free
 304              	.LVL32:
 305              	.L16:
  79:.\Generated_Source\PSoC5/NP_funcs.c ****     }
  80:.\Generated_Source\PSoC5/NP_funcs.c ****     NP_g_pFrameBuffer = NULL;
 306              		.loc 1 80 0
 307 0026 0022     		movs	r2, #0
 308 0028 014B     		ldr	r3, .L18
 309 002a 1A60     		str	r2, [r3]
 310 002c 08BD     		pop	{r3, pc}
 311              	.L19:
 312 002e 00BF     		.align	2
 313              	.L18:
 314 0030 00000000 		.word	NP_g_pFrameBuffer
 315 0034 00000000 		.word	NP_g_nDMA_Chan
 316 0038 00000000 		.word	NP_g_nDMA_TD
 317 003c 00000000 		.word	NP_g_bOwnsBuffer
 318              		.cfi_endproc
ARM GAS  C:\Users\Nick\AppData\Local\Temp\ccGbuigH.s 			page 8


 319              	.LFE2:
 320              		.size	NP_Stop, .-NP_Stop
 321              		.comm	NP_g_nFrameBufferSize,4,4
 322              		.comm	NP_g_pFrameBuffer,4,4
 323              		.comm	NP_g_bOwnsBuffer,1,1
 324              		.comm	NP_g_nDMA_TD,1,1
 325              		.comm	NP_g_nDMA_Chan,1,1
 326              		.comm	NP_g_nNumberOfPixels,4,4
 327              		.text
 328              	.Letext0:
 329              		.file 2 ".\\Generated_Source\\PSoC5\\cytypes.h"
 330              		.file 3 "c:\\program files (x86)\\cypress\\psoc creator\\3.3\\psoc creator\\import\\gnu\\arm\\4.9.
 331              		.file 4 ".\\Generated_Source\\PSoC5\\NP_funcs.h"
 332              		.file 5 ".\\Generated_Source\\PSoC5\\NP_Neo_BITCNT.h"
 333              		.file 6 ".\\Generated_Source\\PSoC5\\NP_Neo_ONTime.h"
 334              		.file 7 ".\\Generated_Source\\PSoC5\\NP_Neo_OFFTime.h"
 335              		.file 8 ".\\Generated_Source\\PSoC5\\NP_DMA_DMA.h"
 336              		.file 9 "c:\\program files (x86)\\cypress\\psoc creator\\3.3\\psoc creator\\import\\gnu\\arm\\4.9.
 337              		.file 10 "Generated_Source\\PSoC5/CYDMAC.H"